target datalayout = "e-m:e-p270:32:32-p271:32:32-p272:64:64-i64:64-i128:128-f80:128-n8:16:32:64-S128"
target triple = "x86_64-pc-linux-gnu"

; Function Attrs: nounwind sspstrong uwtable
define internal i64 @fun_si_from_utf_32(ptr noundef %0, ptr noundef %1, i64 noundef %2) #0 {
  %4 = alloca i64, align 8
  %5 = alloca ptr, align 8
  %6 = alloca ptr, align 8
  %7 = alloca i64, align 8
  %8 = alloca ptr, align 8
  %9 = alloca i32, align 4
  store ptr %0, ptr %5, align 8, !tbaa !6
  store ptr %1, ptr %6, align 8, !tbaa !10
  store i64 %2, ptr %7, align 8, !tbaa !12
  call void @llvm.lifetime.start.p0(i64 8, ptr %8) #3
  %10 = load ptr, ptr %5, align 8, !tbaa !6
  store ptr %10, ptr %8, align 8, !tbaa !10
  %11 = load ptr, ptr %8, align 8, !tbaa !10
  %12 = load i8, ptr %11, align 1, !tbaa !14
  %13 = zext i8 %12 to i32
  switch i32 %13, label %144 [
    i32 0, label %14
    i32 1, label %68
    i32 2, label %106
  ]

14:                                               ; preds = %3
  %15 = load ptr, ptr %6, align 8, !tbaa !10
  %16 = getelementptr inbounds i8, ptr %15, i64 0
  %17 = load i8, ptr %16, align 1, !tbaa !14
  %18 = zext i8 %17 to i32
  %19 = icmp eq i32 %18, 0
  br i1 %19, label %20, label %40

20:                                               ; preds = %14
  %21 = load ptr, ptr %6, align 8, !tbaa !10
  %22 = getelementptr inbounds i8, ptr %21, i64 1
  %23 = load i8, ptr %22, align 1, !tbaa !14
  %24 = zext i8 %23 to i32
  %25 = icmp eq i32 %24, 0
  br i1 %25, label %26, label %40

26:                                               ; preds = %20
  %27 = load ptr, ptr %6, align 8, !tbaa !10
  %28 = getelementptr inbounds i8, ptr %27, i64 2
  %29 = load i8, ptr %28, align 1, !tbaa !14
  %30 = zext i8 %29 to i32
  %31 = icmp eq i32 %30, 254
  br i1 %31, label %32, label %40

32:                                               ; preds = %26
  %33 = load ptr, ptr %6, align 8, !tbaa !10
  %34 = getelementptr inbounds i8, ptr %33, i64 3
  %35 = load i8, ptr %34, align 1, !tbaa !14
  %36 = zext i8 %35 to i32
  %37 = icmp eq i32 %36, 255
  br i1 %37, label %38, label %40

38:                                               ; preds = %32
  %39 = load ptr, ptr %8, align 8, !tbaa !10
  store i8 1, ptr %39, align 1, !tbaa !14
  store i64 10, ptr %4, align 8
  store i32 1, ptr %9, align 4
  br label %145

40:                                               ; preds = %32, %26, %20, %14
  %41 = load ptr, ptr %6, align 8, !tbaa !10
  %42 = getelementptr inbounds i8, ptr %41, i64 0
  %43 = load i8, ptr %42, align 1, !tbaa !14
  %44 = zext i8 %43 to i32
  %45 = icmp eq i32 %44, 255
  br i1 %45, label %46, label %66

46:                                               ; preds = %40
  %47 = load ptr, ptr %6, align 8, !tbaa !10
  %48 = getelementptr inbounds i8, ptr %47, i64 1
  %49 = load i8, ptr %48, align 1, !tbaa !14
  %50 = zext i8 %49 to i32
  %51 = icmp eq i32 %50, 254
  br i1 %51, label %52, label %66

52:                                               ; preds = %46
  %53 = load ptr, ptr %6, align 8, !tbaa !10
  %54 = getelementptr inbounds i8, ptr %53, i64 2
  %55 = load i8, ptr %54, align 1, !tbaa !14
  %56 = zext i8 %55 to i32
  %57 = icmp eq i32 %56, 0
  br i1 %57, label %58, label %66

58:                                               ; preds = %52
  %59 = load ptr, ptr %6, align 8, !tbaa !10
  %60 = getelementptr inbounds i8, ptr %59, i64 3
  %61 = load i8, ptr %60, align 1, !tbaa !14
  %62 = zext i8 %61 to i32
  %63 = icmp eq i32 %62, 0
  br i1 %63, label %64, label %66

64:                                               ; preds = %58
  %65 = load ptr, ptr %8, align 8, !tbaa !10
  store i8 2, ptr %65, align 1, !tbaa !14
  store i64 10, ptr %4, align 8
  store i32 1, ptr %9, align 4
  br label %145

66:                                               ; preds = %58, %52, %46, %40
  br label %67

67:                                               ; preds = %66
  br label %144

68:                                               ; preds = %3
  %69 = load ptr, ptr %6, align 8, !tbaa !10
  %70 = getelementptr inbounds i8, ptr %69, i64 0
  %71 = load i8, ptr %70, align 1, !tbaa !14
  %72 = zext i8 %71 to i32
  %73 = icmp eq i32 %72, 0
  br i1 %73, label %74, label %105

74:                                               ; preds = %68
  %75 = load ptr, ptr %6, align 8, !tbaa !10
  %76 = getelementptr inbounds i8, ptr %75, i64 1
  %77 = load i8, ptr %76, align 1, !tbaa !14
  %78 = zext i8 %77 to i32
  %79 = icmp slt i32 0, %78
  br i1 %79, label %80, label %86

80:                                               ; preds = %74
  %81 = load ptr, ptr %6, align 8, !tbaa !10
  %82 = getelementptr inbounds i8, ptr %81, i64 1
  %83 = load i8, ptr %82, align 1, !tbaa !14
  %84 = zext i8 %83 to i32
  %85 = icmp sle i32 %84, 16
  br i1 %85, label %104, label %86

86:                                               ; preds = %80, %74
  %87 = load ptr, ptr %6, align 8, !tbaa !10
  %88 = getelementptr inbounds i8, ptr %87, i64 1
  %89 = load i8, ptr %88, align 1, !tbaa !14
  %90 = zext i8 %89 to i32
  %91 = icmp eq i32 %90, 0
  br i1 %91, label %92, label %105

92:                                               ; preds = %86
  %93 = load ptr, ptr %6, align 8, !tbaa !10
  %94 = getelementptr inbounds i8, ptr %93, i64 2
  %95 = load i8, ptr %94, align 1, !tbaa !14
  %96 = zext i8 %95 to i32
  %97 = icmp slt i32 %96, 216
  br i1 %97, label %104, label %98

98:                                               ; preds = %92
  %99 = load ptr, ptr %6, align 8, !tbaa !10
  %100 = getelementptr inbounds i8, ptr %99, i64 2
  %101 = load i8, ptr %100, align 1, !tbaa !14
  %102 = zext i8 %101 to i32
  %103 = icmp slt i32 223, %102
  br i1 %103, label %104, label %105

104:                                              ; preds = %98, %92, %80
  store i64 15, ptr %4, align 8
  store i32 1, ptr %9, align 4
  br label %145

105:                                              ; preds = %98, %86, %68
  br label %144

106:                                              ; preds = %3
  %107 = load ptr, ptr %6, align 8, !tbaa !10
  %108 = getelementptr inbounds i8, ptr %107, i64 3
  %109 = load i8, ptr %108, align 1, !tbaa !14
  %110 = zext i8 %109 to i32
  %111 = icmp eq i32 %110, 0
  br i1 %111, label %112, label %143

112:                                              ; preds = %106
  %113 = load ptr, ptr %6, align 8, !tbaa !10
  %114 = getelementptr inbounds i8, ptr %113, i64 2
  %115 = load i8, ptr %114, align 1, !tbaa !14
  %116 = zext i8 %115 to i32
  %117 = icmp slt i32 0, %116
  br i1 %117, label %118, label %124

118:                                              ; preds = %112
  %119 = load ptr, ptr %6, align 8, !tbaa !10
  %120 = getelementptr inbounds i8, ptr %119, i64 2
  %121 = load i8, ptr %120, align 1, !tbaa !14
  %122 = zext i8 %121 to i32
  %123 = icmp sle i32 %122, 16
  br i1 %123, label %142, label %124

124:                                              ; preds = %118, %112
  %125 = load ptr, ptr %6, align 8, !tbaa !10
  %126 = getelementptr inbounds i8, ptr %125, i64 2
  %127 = load i8, ptr %126, align 1, !tbaa !14
  %128 = zext i8 %127 to i32
  %129 = icmp eq i32 %128, 0
  br i1 %129, label %130, label %143

130:                                              ; preds = %124
  %131 = load ptr, ptr %6, align 8, !tbaa !10
  %132 = getelementptr inbounds i8, ptr %131, i64 1
  %133 = load i8, ptr %132, align 1, !tbaa !14
  %134 = zext i8 %133 to i32
  %135 = icmp slt i32 %134, 216
  br i1 %135, label %142, label %136

136:                                              ; preds = %130
  %137 = load ptr, ptr %6, align 8, !tbaa !10
  %138 = getelementptr inbounds i8, ptr %137, i64 1
  %139 = load i8, ptr %138, align 1, !tbaa !14
  %140 = zext i8 %139 to i32
  %141 = icmp slt i32 223, %140
  br i1 %141, label %142, label %143

142:                                              ; preds = %136, %130, %118
  store i64 15, ptr %4, align 8
  store i32 1, ptr %9, align 4
  br label %145

143:                                              ; preds = %136, %124, %106
  br label %144

144:                                              ; preds = %3, %143, %105, %67
  store i64 7, ptr %4, align 8
  store i32 1, ptr %9, align 4
  br label %145

145:                                              ; preds = %144, %142, %104, %64, %38
  call void @llvm.lifetime.end.p0(i64 8, ptr %8) #3
  %146 = load i64, ptr %4, align 8
  ret i64 %146
}