; Function Attrs: mustprogress nofree norecurse nosync nounwind sspstrong willreturn memory(argmem: readwrite) uwtable
define internal range(i64 7, 16) i64 @fun_si_from_utf_32(ptr noundef captures(none) %0, ptr noundef readonly captures(none) %1, i64 %2) #2 {
  %4 = load i8, ptr %0, align 1, !tbaa !6
  switch i8 %4, label %.thread [
    i8 0, label %5
    i8 1, label %33
    i8 2, label %46
  ]

5:                                                ; preds = %3
  %6 = load i8, ptr %1, align 1, !tbaa !6
  switch i8 %6, label %.thread [
    i8 0, label %7
    i8 -1, label %20
  ]

7:                                                ; preds = %5
  %8 = getelementptr inbounds nuw i8, ptr %1, i64 1
  %9 = load i8, ptr %8, align 1, !tbaa !6
  %10 = icmp eq i8 %9, 0
  br i1 %10, label %11, label %.thread

11:                                               ; preds = %7
  %12 = getelementptr inbounds nuw i8, ptr %1, i64 2
  %13 = load i8, ptr %12, align 1, !tbaa !6
  %14 = icmp eq i8 %13, -2
  br i1 %14, label %15, label %.thread

15:                                               ; preds = %11
  %16 = getelementptr inbounds nuw i8, ptr %1, i64 3
  %17 = load i8, ptr %16, align 1, !tbaa !6
  %18 = icmp eq i8 %17, -1
  br i1 %18, label %19, label %.thread

19:                                               ; preds = %15
  store i8 1, ptr %0, align 1, !tbaa !6
  br label %60

20:                                               ; preds = %5
  %21 = getelementptr inbounds nuw i8, ptr %1, i64 1
  %22 = load i8, ptr %21, align 1, !tbaa !6
  %23 = icmp eq i8 %22, -2
  br i1 %23, label %24, label %.thread

24:                                               ; preds = %20
  %25 = getelementptr inbounds nuw i8, ptr %1, i64 2
  %26 = load i8, ptr %25, align 1, !tbaa !6
  %27 = icmp eq i8 %26, 0
  br i1 %27, label %28, label %.thread

28:                                               ; preds = %24
  %29 = getelementptr inbounds nuw i8, ptr %1, i64 3
  %30 = load i8, ptr %29, align 1, !tbaa !6
  %31 = icmp eq i8 %30, 0
  br i1 %31, label %32, label %.thread

32:                                               ; preds = %28
  store i8 2, ptr %0, align 1, !tbaa !6
  br label %60

33:                                               ; preds = %3
  %34 = load i8, ptr %1, align 1, !tbaa !6
  %35 = icmp eq i8 %34, 0
  br i1 %35, label %36, label %.thread

36:                                               ; preds = %33
  %37 = getelementptr inbounds nuw i8, ptr %1, i64 1
  %38 = load i8, ptr %37, align 1, !tbaa !6
  %39 = add i8 %38, -1
  %or.cond = icmp ult i8 %39, 16
  br i1 %or.cond, label %60, label %40

40:                                               ; preds = %36
  %41 = icmp eq i8 %38, 0
  br i1 %41, label %42, label %.thread

42:                                               ; preds = %40
  %43 = getelementptr inbounds nuw i8, ptr %1, i64 2
  %44 = load i8, ptr %43, align 1, !tbaa !6
  %45 = add i8 %44, 32
  %or.cond29 = icmp ult i8 %45, -8
  br i1 %or.cond29, label %60, label %.thread

46:                                               ; preds = %3
  %47 = getelementptr inbounds nuw i8, ptr %1, i64 3
  %48 = load i8, ptr %47, align 1, !tbaa !6
  %49 = icmp eq i8 %48, 0
  br i1 %49, label %50, label %.thread

50:                                               ; preds = %46
  %51 = getelementptr inbounds nuw i8, ptr %1, i64 2
  %52 = load i8, ptr %51, align 1, !tbaa !6
  %53 = add i8 %52, -1
  %or.cond30 = icmp ult i8 %53, 16
  br i1 %or.cond30, label %60, label %54

54:                                               ; preds = %50
  %55 = icmp eq i8 %52, 0
  br i1 %55, label %56, label %.thread

56:                                               ; preds = %54
  %57 = getelementptr inbounds nuw i8, ptr %1, i64 1
  %58 = load i8, ptr %57, align 1, !tbaa !6
  %59 = add i8 %58, 32
  %or.cond31 = icmp ult i8 %59, -8
  br i1 %or.cond31, label %60, label %.thread

.thread:                                          ; preds = %5, %7, %11, %15, %56, %42, %46, %54, %33, %40, %28, %24, %20, %3
  br label %60

60:                                               ; preds = %56, %50, %42, %36, %.thread, %32, %19
  %.0 = phi i64 [ 7, %.thread ], [ 10, %19 ], [ 10, %32 ], [ 15, %36 ], [ 15, %42 ], [ 15, %50 ], [ 15, %56 ]
  ret i64 %.0
}